target datalayout = "e-m:e-p270:32:32-p271:32:32-p272:64:64-i64:64-i128:128-f80:128-n8:16:32:64-S128"
target triple = "x86_64-pc-linux-gnu"

%struct.AVFormatContext = type { ptr, ptr, ptr, ptr, ptr, i32, i32, ptr, i32, ptr, i32, ptr, ptr, i64, i64, i64, i32, i32, i32, i64, i64, ptr, i32, i32, ptr, i32, i32, i32, i32, ptr, i64, i32, i32, %struct.AVIOInterruptCB, i32, i32, i32, i32, i64, i32, i32, i32, i32, i32, i32, i32, i32, i32, i32, i32, i32, i64, i32, i32, i32, i32, i32, ptr, ptr, ptr, ptr, i32, ptr, ptr, ptr, ptr, i32, ptr, ptr, i64, ptr, ptr, ptr, i64 }
%struct.AVIOInterruptCB = type { ptr, ptr }
%struct.ogg = type { ptr, i32, i32, i32, i64, ptr }
%struct.ogg_stream = type { ptr, i32, i32, i32, i32, i32, i32, i32, i64, i64, i64, i64, i64, i64, i32, ptr, i32, i32, i32, [255 x i8], i32, i32, i32, i32, i32, i32, i32, i32, ptr, i64, ptr }
%struct.ogg_state = type { i64, i32, ptr, i32, [1 x %struct.ogg_stream] }

; Function Attrs: alwaysinline nounwind uwtable
define internal i64 @avio_tell(ptr noundef %0) #5 {
  %2 = alloca ptr, align 8
  store ptr %0, ptr %2, align 8, !tbaa !94
  %3 = load ptr, ptr %2, align 8, !tbaa !94
  %4 = call i64 @avio_seek(ptr noundef %3, i64 noundef 0, i32 noundef 1)
  ret i64 %4
}

; Function Attrs: nounwind uwtable
define internal i32 @ogg_save(ptr noundef %0) #0 {
  %2 = alloca i32, align 4
  %3 = alloca ptr, align 8
  %4 = alloca ptr, align 8
  %5 = alloca ptr, align 8
  %6 = alloca i32, align 4
  %7 = alloca i32, align 4
  %8 = alloca i32, align 4
  %9 = alloca ptr, align 8
  store ptr %0, ptr %3, align 8, !tbaa !14
  call void @llvm.lifetime.start.p0(i64 8, ptr %4) #10
  %10 = load ptr, ptr %3, align 8, !tbaa !14
  %11 = getelementptr inbounds nuw %struct.AVFormatContext, ptr %10, i32 0, i32 3
  %12 = load ptr, ptr %11, align 8, !tbaa !16
  store ptr %12, ptr %4, align 8, !tbaa !31
  call void @llvm.lifetime.start.p0(i64 8, ptr %5) #10
  %13 = load ptr, ptr %4, align 8, !tbaa !31
  %14 = getelementptr inbounds nuw %struct.ogg, ptr %13, i32 0, i32 1
  %15 = load i32, ptr %14, align 8, !tbaa !41
  %16 = sub nsw i32 %15, 1
  %17 = sext i32 %16 to i64
  %18 = mul i64 %17, 432
  %19 = add i64 464, %18
  %20 = call noalias ptr @av_malloc(i64 noundef %19)
  store ptr %20, ptr %5, align 8, !tbaa !146
  call void @llvm.lifetime.start.p0(i64 4, ptr %6) #10
  call void @llvm.lifetime.start.p0(i64 4, ptr %7) #10
  store i32 0, ptr %7, align 4, !tbaa !37
  %21 = load ptr, ptr %5, align 8, !tbaa !146
  %22 = icmp ne ptr %21, null
  br i1 %22, label %24, label %23

23:                                               ; preds = %1
  store i32 -12, ptr %2, align 4
  store i32 1, ptr %8, align 4
  br label %117

24:                                               ; preds = %1
  %25 = load ptr, ptr %3, align 8, !tbaa !14
  %26 = getelementptr inbounds nuw %struct.AVFormatContext, ptr %25, i32 0, i32 4
  %27 = load ptr, ptr %26, align 8, !tbaa !93
  %28 = call i64 @avio_tell(ptr noundef %27)
  %29 = load ptr, ptr %5, align 8, !tbaa !146
  %30 = getelementptr inbounds nuw %struct.ogg_state, ptr %29, i32 0, i32 0
  store i64 %28, ptr %30, align 8, !tbaa !147
  %31 = load ptr, ptr %4, align 8, !tbaa !31
  %32 = getelementptr inbounds nuw %struct.ogg, ptr %31, i32 0, i32 3
  %33 = load i32, ptr %32, align 8, !tbaa !33
  %34 = load ptr, ptr %5, align 8, !tbaa !146
  %35 = getelementptr inbounds nuw %struct.ogg_state, ptr %34, i32 0, i32 1
  store i32 %33, ptr %35, align 8, !tbaa !149
  %36 = load ptr, ptr %4, align 8, !tbaa !31
  %37 = getelementptr inbounds nuw %struct.ogg, ptr %36, i32 0, i32 5
  %38 = load ptr, ptr %37, align 8, !tbaa !144
  %39 = load ptr, ptr %5, align 8, !tbaa !146
  %40 = getelementptr inbounds nuw %struct.ogg_state, ptr %39, i32 0, i32 2
  store ptr %38, ptr %40, align 8, !tbaa !150
  %41 = load ptr, ptr %4, align 8, !tbaa !31
  %42 = getelementptr inbounds nuw %struct.ogg, ptr %41, i32 0, i32 1
  %43 = load i32, ptr %42, align 8, !tbaa !41
  %44 = load ptr, ptr %5, align 8, !tbaa !146
  %45 = getelementptr inbounds nuw %struct.ogg_state, ptr %44, i32 0, i32 3
  store i32 %43, ptr %45, align 8, !tbaa !151
  %46 = load ptr, ptr %5, align 8, !tbaa !146
  %47 = getelementptr inbounds nuw %struct.ogg_state, ptr %46, i32 0, i32 4
  %48 = getelementptr inbounds [1 x %struct.ogg_stream], ptr %47, i64 0, i64 0
  %49 = load ptr, ptr %4, align 8, !tbaa !31
  %50 = getelementptr inbounds nuw %struct.ogg, ptr %49, i32 0, i32 0
  %51 = load ptr, ptr %50, align 8, !tbaa !42
  %52 = load ptr, ptr %4, align 8, !tbaa !31
  %53 = getelementptr inbounds nuw %struct.ogg, ptr %52, i32 0, i32 1
  %54 = load i32, ptr %53, align 8, !tbaa !41
  %55 = sext i32 %54 to i64
  %56 = mul i64 %55, 432
  call void @llvm.memcpy.p0.p0.i64(ptr align 8 %48, ptr align 8 %51, i64 %56, i1 false)
  store i32 0, ptr %6, align 4, !tbaa !37
  br label %57

57:                                               ; preds = %103, %24
  %58 = load i32, ptr %6, align 4, !tbaa !37
  %59 = load ptr, ptr %4, align 8, !tbaa !31
  %60 = getelementptr inbounds nuw %struct.ogg, ptr %59, i32 0, i32 1
  %61 = load i32, ptr %60, align 8, !tbaa !41
  %62 = icmp slt i32 %58, %61
  br i1 %62, label %63, label %106

63:                                               ; preds = %57
  call void @llvm.lifetime.start.p0(i64 8, ptr %9) #10
  %64 = load ptr, ptr %4, align 8, !tbaa !31
  %65 = getelementptr inbounds nuw %struct.ogg, ptr %64, i32 0, i32 0
  %66 = load ptr, ptr %65, align 8, !tbaa !42
  %67 = load i32, ptr %6, align 4, !tbaa !37
  %68 = sext i32 %67 to i64
  %69 = getelementptr inbounds %struct.ogg_stream, ptr %66, i64 %68
  store ptr %69, ptr %9, align 8, !tbaa !43
  %70 = load ptr, ptr %9, align 8, !tbaa !43
  %71 = getelementptr inbounds nuw %struct.ogg_stream, ptr %70, i32 0, i32 1
  %72 = load i32, ptr %71, align 8, !tbaa !141
  %73 = add i32 %72, 64
  %74 = zext i32 %73 to i64
  %75 = call noalias ptr @av_mallocz(i64 noundef %74)
  %76 = load ptr, ptr %9, align 8, !tbaa !43
  %77 = getelementptr inbounds nuw %struct.ogg_stream, ptr %76, i32 0, i32 0
  store ptr %75, ptr %77, align 8, !tbaa !74
  %78 = load ptr, ptr %9, align 8, !tbaa !43
  %79 = getelementptr inbounds nuw %struct.ogg_stream, ptr %78, i32 0, i32 0
  %80 = load ptr, ptr %79, align 8, !tbaa !74
  %81 = icmp ne ptr %80, null
  br i1 %81, label %82, label %97

82:                                               ; preds = %63
  %83 = load ptr, ptr %9, align 8, !tbaa !43
  %84 = getelementptr inbounds nuw %struct.ogg_stream, ptr %83, i32 0, i32 0
  %85 = load ptr, ptr %84, align 8, !tbaa !74
  %86 = load ptr, ptr %5, align 8, !tbaa !146
  %87 = getelementptr inbounds nuw %struct.ogg_state, ptr %86, i32 0, i32 4
  %88 = load i32, ptr %6, align 4, !tbaa !37
  %89 = sext i32 %88 to i64
  %90 = getelementptr inbounds [1 x %struct.ogg_stream], ptr %87, i64 0, i64 %89
  %91 = getelementptr inbounds nuw %struct.ogg_stream, ptr %90, i32 0, i32 0
  %92 = load ptr, ptr %91, align 8, !tbaa !74
  %93 = load ptr, ptr %9, align 8, !tbaa !43
  %94 = getelementptr inbounds nuw %struct.ogg_stream, ptr %93, i32 0, i32 2
  %95 = load i32, ptr %94, align 4, !tbaa !106
  %96 = zext i32 %95 to i64
  call void @llvm.memcpy.p0.p0.i64(ptr align 1 %85, ptr align 1 %92, i64 %96, i1 false)
  br label %98

97:                                               ; preds = %63
  store i32 -12, ptr %7, align 4, !tbaa !37
  br label %98

98:                                               ; preds = %97, %82
  %99 = load ptr, ptr %9, align 8, !tbaa !43
  %100 = getelementptr inbounds nuw %struct.ogg_stream, ptr %99, i32 0, i32 28
  store ptr null, ptr %100, align 8, !tbaa !84
  %101 = load ptr, ptr %9, align 8, !tbaa !43
  %102 = getelementptr inbounds nuw %struct.ogg_stream, ptr %101, i32 0, i32 29
  store i64 0, ptr %102, align 8, !tbaa !85
  call void @llvm.lifetime.end.p0(i64 8, ptr %9) #10
  br label %103

103:                                              ; preds = %98
  %104 = load i32, ptr %6, align 4, !tbaa !37
  %105 = add nsw i32 %104, 1
  store i32 %105, ptr %6, align 4, !tbaa !37
  br label %57, !llvm.loop !152

106:                                              ; preds = %57
  %107 = load ptr, ptr %5, align 8, !tbaa !146
  %108 = load ptr, ptr %4, align 8, !tbaa !31
  %109 = getelementptr inbounds nuw %struct.ogg, ptr %108, i32 0, i32 5
  store ptr %107, ptr %109, align 8, !tbaa !144
  %110 = load i32, ptr %7, align 4, !tbaa !37
  %111 = icmp slt i32 %110, 0
  br i1 %111, label %112, label %115

112:                                              ; preds = %106
  %113 = load ptr, ptr %3, align 8, !tbaa !14
  %114 = call i32 @ogg_restore(ptr noundef %113)
  br label %115

115:                                              ; preds = %112, %106
  %116 = load i32, ptr %7, align 4, !tbaa !37
  store i32 %116, ptr %2, align 4
  store i32 1, ptr %8, align 4
  br label %117

117:                                              ; preds = %115, %23
  call void @llvm.lifetime.end.p0(i64 4, ptr %7) #10
  call void @llvm.lifetime.end.p0(i64 4, ptr %6) #10
  call void @llvm.lifetime.end.p0(i64 8, ptr %5) #10
  call void @llvm.lifetime.end.p0(i64 8, ptr %4) #10
  %118 = load i32, ptr %2, align 4
  ret i32 %118
}