; Function Attrs: nounwind uwtable
define internal fastcc range(i32 -12, 1) i32 @ogg_save(ptr noundef %0) unnamed_addr #1 {
  %2 = getelementptr inbounds nuw i8, ptr %0, i64 24
  %3 = load ptr, ptr %2, align 8, !tbaa !12
  %4 = getelementptr inbounds nuw i8, ptr %3, i64 8
  %5 = load i32, ptr %4, align 8, !tbaa !34
  %6 = add nsw i32 %5, -1
  %7 = sext i32 %6 to i64
  %8 = mul nsw i64 %7, 432
  %9 = add nsw i64 %8, 464
  %10 = tail call noalias ptr @av_malloc(i64 noundef %9) #9
  %.not = icmp eq ptr %10, null
  br i1 %.not, label %48, label %11

11:                                               ; preds = %1
  %12 = getelementptr inbounds nuw i8, ptr %0, i64 32
  %13 = load ptr, ptr %12, align 8, !tbaa !58
  %14 = tail call i64 @avio_seek(ptr noundef %13, i64 noundef 0, i32 noundef 1) #9
  store i64 %14, ptr %10, align 8, !tbaa !131
  %15 = getelementptr inbounds nuw i8, ptr %3, i64 16
  %16 = load i32, ptr %15, align 8, !tbaa !27
  %17 = getelementptr inbounds nuw i8, ptr %10, i64 8
  store i32 %16, ptr %17, align 8, !tbaa !133
  %18 = getelementptr inbounds nuw i8, ptr %3, i64 32
  %19 = load ptr, ptr %18, align 8, !tbaa !129
  %20 = getelementptr inbounds nuw i8, ptr %10, i64 16
  store ptr %19, ptr %20, align 8, !tbaa !134
  %21 = load i32, ptr %4, align 8, !tbaa !34
  %22 = getelementptr inbounds nuw i8, ptr %10, i64 24
  store i32 %21, ptr %22, align 8, !tbaa !135
  %23 = getelementptr inbounds nuw i8, ptr %10, i64 32
  %24 = load ptr, ptr %3, align 8, !tbaa !35
  %25 = sext i32 %21 to i64
  %26 = mul nsw i64 %25, 432
  tail call void @llvm.memcpy.p0.p0.i64(ptr nonnull align 8 %23, ptr align 8 %24, i64 %26, i1 false)
  %27 = icmp sgt i32 %21, 0
  br i1 %27, label %.lr.ph, label %._crit_edge.thread

._crit_edge.thread:                               ; preds = %11
  store ptr %10, ptr %18, align 8, !tbaa !129
  br label %48

.lr.ph:                                           ; preds = %11, %41
  %indvars.iv = phi i64 [ %indvars.iv.next, %41 ], [ 0, %11 ]
  %.03339 = phi i32 [ %.1, %41 ], [ 0, %11 ]
  %28 = load ptr, ptr %3, align 8, !tbaa !35
  %29 = getelementptr inbounds nuw %struct.ogg_stream, ptr %28, i64 %indvars.iv
  %30 = getelementptr inbounds nuw i8, ptr %29, i64 8
  %31 = load i32, ptr %30, align 8, !tbaa !127
  %32 = add i32 %31, 64
  %33 = zext i32 %32 to i64
  %34 = tail call noalias ptr @av_mallocz(i64 noundef %33) #9
  store ptr %34, ptr %29, align 8, !tbaa !95
  %.not37 = icmp eq ptr %34, null
  br i1 %.not37, label %41, label %35

35:                                               ; preds = %.lr.ph
  %36 = getelementptr inbounds nuw [1 x %struct.ogg_stream], ptr %23, i64 0, i64 %indvars.iv
  %37 = load ptr, ptr %36, align 8, !tbaa !95
  %38 = getelementptr inbounds nuw i8, ptr %29, i64 12
  %39 = load i32, ptr %38, align 4, !tbaa !73
  %40 = zext i32 %39 to i64
  tail call void @llvm.memcpy.p0.p0.i64(ptr nonnull align 1 %34, ptr align 1 %37, i64 %40, i1 false)
  br label %41

41:                                               ; preds = %.lr.ph, %35
  %.1 = phi i32 [ %.03339, %35 ], [ -12, %.lr.ph ]
  %42 = getelementptr inbounds nuw i8, ptr %29, i64 408
  %indvars.iv.next = add nuw nsw i64 %indvars.iv, 1
  tail call void @llvm.memset.p0.i64(ptr noundef nonnull align 8 dereferenceable(16) %42, i8 0, i64 16, i1 false)
  %43 = load i32, ptr %4, align 8, !tbaa !34
  %44 = sext i32 %43 to i64
  %45 = icmp slt i64 %indvars.iv.next, %44
  br i1 %45, label %.lr.ph, label %._crit_edge, !llvm.loop !136

._crit_edge:                                      ; preds = %41
  store ptr %10, ptr %18, align 8, !tbaa !129
  %46 = icmp slt i32 %.1, 0
  br i1 %46, label %47, label %48

47:                                               ; preds = %._crit_edge
  tail call fastcc void @ogg_restore(ptr noundef %0)
  br label %48

48:                                               ; preds = %._crit_edge.thread, %._crit_edge, %47, %1
  %.0 = phi i32 [ -12, %1 ], [ %.1, %47 ], [ %.1, %._crit_edge ], [ 0, %._crit_edge.thread ]
  ret i32 %.0
}